; Function Attrs: mustprogress uwtable
define hidden void @_Z17joinErrorMessagesRKNSt7__cxx1112basic_stringIcSt11char_traitsIcESaIcEEES6_(ptr dead_on_unwind noalias writable sret(%"class.std::__cxx11::basic_string") align 8 %0, ptr noundef nonnull align 8 dereferenceable(32) %1, ptr noundef nonnull align 8 dereferenceable(32) %2) local_unnamed_addr #3 personality ptr @__gxx_personality_v0 {
  %4 = alloca %"class.std::__cxx11::basic_string", align 8
  %5 = alloca %"class.std::allocator", align 1
  %6 = alloca %"class.std::__cxx11::basic_string", align 8
  %7 = alloca %"class.std::allocator", align 1
  %8 = alloca %"class.std::__cxx11::basic_string", align 8
  %9 = alloca %"class.std::allocator", align 1
  %10 = alloca %"class.std::__cxx11::basic_ostringstream", align 8
  %11 = alloca %"class.std::__cxx11::basic_string", align 8
  call void @_ZNSaIcEC1Ev(ptr noundef nonnull align 1 dereferenceable(1) %5) #7
  invoke void @_ZNSt7__cxx1112basic_stringIcSt11char_traitsIcESaIcEEC1EPKcRKS3_(ptr noundef nonnull align 8 dereferenceable(32) %4, ptr noundef nonnull @.str.6, ptr noundef nonnull align 1 dereferenceable(1) %5)
          to label %12 unwind label %32

12:                                               ; preds = %3
  call void @_ZNSaIcED1Ev(ptr noundef nonnull align 1 dereferenceable(1) %5) #7
  call void @_ZNSaIcEC1Ev(ptr noundef nonnull align 1 dereferenceable(1) %7) #7
  invoke void @_ZNSt7__cxx1112basic_stringIcSt11char_traitsIcESaIcEEC1EPKcRKS3_(ptr noundef nonnull align 8 dereferenceable(32) %6, ptr noundef nonnull @.str.7, ptr noundef nonnull align 1 dereferenceable(1) %7)
          to label %13 unwind label %34

13:                                               ; preds = %12
  call void @_ZNSaIcED1Ev(ptr noundef nonnull align 1 dereferenceable(1) %7) #7
  call void @_ZNSaIcEC1Ev(ptr noundef nonnull align 1 dereferenceable(1) %9) #7
  invoke void @_ZNSt7__cxx1112basic_stringIcSt11char_traitsIcESaIcEEC1EPKcRKS3_(ptr noundef nonnull align 8 dereferenceable(32) %8, ptr noundef nonnull @.str.8, ptr noundef nonnull align 1 dereferenceable(1) %9)
          to label %14 unwind label %36

14:                                               ; preds = %13
  call void @_ZNSaIcED1Ev(ptr noundef nonnull align 1 dereferenceable(1) %9) #7
  invoke void @_ZNSt7__cxx1119basic_ostringstreamIcSt11char_traitsIcESaIcEEC1Ev(ptr noundef nonnull align 8 dereferenceable(112) %10)
          to label %15 unwind label %38

15:                                               ; preds = %14
  %16 = load ptr, ptr %10, align 8
  %17 = getelementptr i8, ptr %16, i64 -24
  %18 = load i64, ptr %17, align 8
  %19 = getelementptr inbounds i8, ptr %10, i64 %18
  invoke void @_ZNSt9basic_iosIcSt11char_traitsIcEE10exceptionsESt12_Ios_Iostate(ptr noundef nonnull align 8 dereferenceable(264) %19, i32 noundef 5)
          to label %20 unwind label %40

20:                                               ; preds = %15
  %21 = invoke fastcc noundef i64 @_ZN12_GLOBAL__N_123printWithoutWhitespacesERSoRKNSt7__cxx1112basic_stringIcSt11char_traitsIcESaIcEEENS_8TrimModeE(ptr noundef nonnull align 8 dereferenceable(8) %10, ptr noundef nonnull align 8 dereferenceable(32) %1, i32 noundef 32)
          to label %22 unwind label %40

22:                                               ; preds = %20
  %23 = call noundef i64 @_ZNKSt7__cxx1112basic_stringIcSt11char_traitsIcESaIcEE4sizeEv(ptr noundef nonnull align 8 dereferenceable(32) %1) #7
  %24 = icmp ult i64 %21, %23
  br i1 %24, label %25, label %42

25:                                               ; preds = %22
  %26 = call noundef nonnull align 1 dereferenceable(1) ptr @_ZNKSt7__cxx1112basic_stringIcSt11char_traitsIcESaIcEEixEm(ptr noundef nonnull align 8 dereferenceable(32) %1, i64 noundef %21) #7
  %27 = load i8, ptr %26, align 1
  %28 = call noundef i64 @_ZNKSt7__cxx1112basic_stringIcSt11char_traitsIcESaIcEE4findEcm(ptr noundef nonnull align 8 dereferenceable(32) %4, i8 noundef signext %27, i64 noundef 0) #7
  %29 = icmp eq i64 %28, -1
  br i1 %29, label %30, label %.thread

30:                                               ; preds = %25
  %31 = invoke noundef nonnull align 8 dereferenceable(8) ptr @_ZStlsIcSt11char_traitsIcESaIcEERSt13basic_ostreamIT_T0_ES7_RKNSt7__cxx1112basic_stringIS4_S5_T1_EE(ptr noundef nonnull align 8 dereferenceable(8) %10, ptr noundef nonnull align 8 dereferenceable(32) %8)
          to label %.sink.split unwind label %40

32:                                               ; preds = %3
  %33 = landingpad { ptr, i32 }
          cleanup
  call void @_ZNSaIcED1Ev(ptr noundef nonnull align 1 dereferenceable(1) %5) #7
  br label %62

34:                                               ; preds = %12
  %35 = landingpad { ptr, i32 }
          cleanup
  call void @_ZNSaIcED1Ev(ptr noundef nonnull align 1 dereferenceable(1) %7) #7
  br label %61

36:                                               ; preds = %13
  %37 = landingpad { ptr, i32 }
          cleanup
  call void @_ZNSaIcED1Ev(ptr noundef nonnull align 1 dereferenceable(1) %9) #7
  br label %60

38:                                               ; preds = %14
  %39 = landingpad { ptr, i32 }
          cleanup
  br label %59

40:                                               ; preds = %47, %45, %.thread, %30, %20, %15
  %41 = landingpad { ptr, i32 }
          cleanup
  br label %58

42:                                               ; preds = %22
  %.not = icmp eq i64 %21, -1
  br i1 %.not, label %45, label %.thread

.thread:                                          ; preds = %25, %42
  %43 = invoke noundef nonnull align 8 dereferenceable(8) ptr @_ZStlsIcSt11char_traitsIcESaIcEERSt13basic_ostreamIT_T0_ES7_RKNSt7__cxx1112basic_stringIS4_S5_T1_EE(ptr noundef nonnull align 8 dereferenceable(8) %10, ptr noundef nonnull align 8 dereferenceable(32) %6)
          to label %.sink.split unwind label %40

.sink.split:                                      ; preds = %.thread, %30
  %.sink = phi ptr [ %8, %30 ], [ %6, %.thread ]
  %44 = call noundef i64 @_ZNKSt7__cxx1112basic_stringIcSt11char_traitsIcESaIcEE4sizeEv(ptr noundef nonnull align 8 dereferenceable(32) %.sink) #7
  br label %45

45:                                               ; preds = %.sink.split, %42
  %.0 = phi i64 [ 0, %42 ], [ %44, %.sink.split ]
  %46 = invoke fastcc noundef i64 @_ZN12_GLOBAL__N_123printWithoutWhitespacesERSoRKNSt7__cxx1112basic_stringIcSt11char_traitsIcESaIcEEENS_8TrimModeE(ptr noundef nonnull align 8 dereferenceable(8) %10, ptr noundef nonnull align 8 dereferenceable(32) %2, i32 noundef 48)
          to label %47 unwind label %40

47:                                               ; preds = %45
  invoke void @_ZNKSt7__cxx1119basic_ostringstreamIcSt11char_traitsIcESaIcEE3strEv(ptr dead_on_unwind nonnull writable sret(%"class.std::__cxx11::basic_string") align 8 %11, ptr noundef nonnull align 8 dereferenceable(112) %10)
          to label %48 unwind label %40

48:                                               ; preds = %47
  %49 = icmp eq i64 %46, -1
  %50 = icmp ne i64 %.0, 0
  %or.cond = and i1 %50, %49
  br i1 %or.cond, label %51, label %56

51:                                               ; preds = %48
  %52 = call noundef i64 @_ZNKSt7__cxx1112basic_stringIcSt11char_traitsIcESaIcEE4sizeEv(ptr noundef nonnull align 8 dereferenceable(32) %11) #7
  %53 = sub i64 %52, %.0
  invoke void @_ZNKSt7__cxx1112basic_stringIcSt11char_traitsIcESaIcEE6substrEmm(ptr dead_on_unwind writable sret(%"class.std::__cxx11::basic_string") align 8 %0, ptr noundef nonnull align 8 dereferenceable(32) %11, i64 noundef 0, i64 noundef %53)
          to label %57 unwind label %54

54:                                               ; preds = %56, %51
  %55 = landingpad { ptr, i32 }
          cleanup
  call void @_ZNSt7__cxx1112basic_stringIcSt11char_traitsIcESaIcEED1Ev(ptr noundef nonnull align 8 dereferenceable(32) %11) #7
  br label %58

56:                                               ; preds = %48
  invoke void @_ZNSt7__cxx1112basic_stringIcSt11char_traitsIcESaIcEEC1ERKS4_(ptr noundef nonnull align 8 dereferenceable(32) %0, ptr noundef nonnull align 8 dereferenceable(32) %11)
          to label %57 unwind label %54

57:                                               ; preds = %56, %51
  call void @_ZNSt7__cxx1112basic_stringIcSt11char_traitsIcESaIcEED1Ev(ptr noundef nonnull align 8 dereferenceable(32) %11) #7
  call void @_ZNSt7__cxx1119basic_ostringstreamIcSt11char_traitsIcESaIcEED1Ev(ptr noundef nonnull align 8 dereferenceable(112) %10) #7
  call void @_ZNSt7__cxx1112basic_stringIcSt11char_traitsIcESaIcEED1Ev(ptr noundef nonnull align 8 dereferenceable(32) %8) #7
  call void @_ZNSt7__cxx1112basic_stringIcSt11char_traitsIcESaIcEED1Ev(ptr noundef nonnull align 8 dereferenceable(32) %6) #7
  call void @_ZNSt7__cxx1112basic_stringIcSt11char_traitsIcESaIcEED1Ev(ptr noundef nonnull align 8 dereferenceable(32) %4) #7
  ret void

58:                                               ; preds = %54, %40
  %.pn = phi { ptr, i32 } [ %55, %54 ], [ %41, %40 ]
  call void @_ZNSt7__cxx1119basic_ostringstreamIcSt11char_traitsIcESaIcEED1Ev(ptr noundef nonnull align 8 dereferenceable(112) %10) #7
  br label %59

59:                                               ; preds = %58, %38
  %.pn.pn = phi { ptr, i32 } [ %.pn, %58 ], [ %39, %38 ]
  call void @_ZNSt7__cxx1112basic_stringIcSt11char_traitsIcESaIcEED1Ev(ptr noundef nonnull align 8 dereferenceable(32) %8) #7
  br label %60

60:                                               ; preds = %59, %36
  %.pn.pn.pn = phi { ptr, i32 } [ %.pn.pn, %59 ], [ %37, %36 ]
  call void @_ZNSt7__cxx1112basic_stringIcSt11char_traitsIcESaIcEED1Ev(ptr noundef nonnull align 8 dereferenceable(32) %6) #7
  br label %61

61:                                               ; preds = %60, %34
  %.pn.pn.pn.pn = phi { ptr, i32 } [ %.pn.pn.pn, %60 ], [ %35, %34 ]
  call void @_ZNSt7__cxx1112basic_stringIcSt11char_traitsIcESaIcEED1Ev(ptr noundef nonnull align 8 dereferenceable(32) %4) #7
  br label %62

62:                                               ; preds = %61, %32
  %.pn.pn.pn.pn.pn = phi { ptr, i32 } [ %.pn.pn.pn.pn, %61 ], [ %33, %32 ]
  resume { ptr, i32 } %.pn.pn.pn.pn.pn
}